; Function Attrs: nounwind uwtable
define ptr @l_List_mapTR_loop___at___private_Lean_Elab_Deriving_FromToJson_0__Lean_Elab_Deriving_FromToJson_mkFromJsonInstance___spec__1(ptr readnone captures(none) %0, ptr noundef %1, ptr noundef %2) local_unnamed_addr #0 {
  br label %4

4:                                                ; preds = %.backedge, %3
  %.027 = phi ptr [ %2, %3 ], [ %.027.be, %.backedge ]
  %.0 = phi ptr [ %1, %3 ], [ %21, %.backedge ]
  %5 = ptrtoint ptr %.0 to i64
  %6 = and i64 %5, 1
  %.not.i30 = icmp eq i64 %6, 0
  br i1 %.not.i30, label %10, label %7

7:                                                ; preds = %4
  %8 = lshr i64 %5, 1
  %9 = trunc i64 %8 to i32
  br label %lean_obj_tag.exit

10:                                               ; preds = %4
  %11 = getelementptr i8, ptr %.0, i64 4
  %.val.i = load i32, ptr %11, align 4
  %12 = lshr i32 %.val.i, 24
  br label %lean_obj_tag.exit

lean_obj_tag.exit:                                ; preds = %7, %10
  %.0.i = phi i32 [ %9, %7 ], [ %12, %10 ]
  %13 = icmp eq i32 %.0.i, 0
  br i1 %13, label %14, label %16

14:                                               ; preds = %lean_obj_tag.exit
  %15 = tail call ptr @l_List_reverse___rarg(ptr noundef %.027) #5
  ret ptr %15

16:                                               ; preds = %lean_obj_tag.exit
  %.0.val = load i32, ptr %.0, align 4, !tbaa !8
  %17 = icmp eq i32 %.0.val, 1
  %18 = getelementptr inbounds nuw i8, ptr %.0, i64 8
  %19 = load ptr, ptr %18, align 8, !tbaa !4
  %20 = getelementptr inbounds nuw i8, ptr %.0, i64 16
  %21 = load ptr, ptr %20, align 8, !tbaa !4
  br i1 %17, label %22, label %24

22:                                               ; preds = %16
  %23 = tail call ptr @l_Lean_MessageData_ofSyntax(ptr noundef %19) #5
  store ptr %.027, ptr %20, align 8, !tbaa !4
  store ptr %23, ptr %18, align 8, !tbaa !4
  br label %.backedge

24:                                               ; preds = %16
  %25 = ptrtoint ptr %21 to i64
  %26 = and i64 %25, 1
  %.not = icmp eq i64 %26, 0
  br i1 %.not, label %27, label %lean_inc.exit29

27:                                               ; preds = %24
  %.val.i31 = load i32, ptr %21, align 4, !tbaa !8
  %28 = icmp sgt i32 %.val.i31, 0
  br i1 %28, label %29, label %31, !prof !11

29:                                               ; preds = %27
  %30 = add nuw i32 %.val.i31, 1
  store i32 %30, ptr %21, align 4, !tbaa !8
  br label %lean_inc.exit29

31:                                               ; preds = %27
  %.not.i32 = icmp eq i32 %.val.i31, 0
  br i1 %.not.i32, label %lean_inc.exit29, label %32

32:                                               ; preds = %31
  tail call void @lean_inc_ref_cold(ptr noundef nonnull %21) #5
  br label %lean_inc.exit29

lean_inc.exit29:                                  ; preds = %32, %31, %29, %24
  %33 = ptrtoint ptr %19 to i64
  %34 = and i64 %33, 1
  %.not36 = icmp eq i64 %34, 0
  br i1 %.not36, label %35, label %lean_inc.exit

35:                                               ; preds = %lean_inc.exit29
  %.val.i33 = load i32, ptr %19, align 4, !tbaa !8
  %36 = icmp sgt i32 %.val.i33, 0
  br i1 %36, label %37, label %39, !prof !11

37:                                               ; preds = %35
  %38 = add nuw i32 %.val.i33, 1
  store i32 %38, ptr %19, align 4, !tbaa !8
  br label %lean_inc.exit

39:                                               ; preds = %35
  %.not.i34 = icmp eq i32 %.val.i33, 0
  br i1 %.not.i34, label %lean_inc.exit, label %40

40:                                               ; preds = %39
  tail call void @lean_inc_ref_cold(ptr noundef nonnull %19) #5
  br label %lean_inc.exit

lean_inc.exit:                                    ; preds = %40, %39, %37, %lean_inc.exit29
  br i1 %.not.i30, label %41, label %lean_dec.exit

41:                                               ; preds = %lean_inc.exit
  %42 = load i32, ptr %.0, align 4, !tbaa !8
  %43 = icmp sgt i32 %42, 1
  br i1 %43, label %44, label %46, !prof !11

44:                                               ; preds = %41
  %45 = add nsw i32 %42, -1
  store i32 %45, ptr %.0, align 4, !tbaa !8
  br label %lean_dec.exit

46:                                               ; preds = %41
  %.not.i = icmp eq i32 %42, 0
  br i1 %.not.i, label %lean_dec.exit, label %47

47:                                               ; preds = %46
  tail call void @lean_dec_ref_cold(ptr noundef nonnull %.0) #5
  br label %lean_dec.exit

lean_dec.exit:                                    ; preds = %47, %46, %44, %lean_inc.exit
  %48 = tail call ptr @l_Lean_MessageData_ofSyntax(ptr noundef %19) #5
  tail call void @lean_inc_heartbeat() #5
  %49 = tail call noalias ptr @mi_malloc_small(i64 noundef 24) #5
  %50 = icmp eq ptr %49, null
  br i1 %50, label %51, label %lean_alloc_ctor.exit

51:                                               ; preds = %lean_dec.exit
  tail call void @lean_internal_panic_out_of_memory() #6
  unreachable

lean_alloc_ctor.exit:                             ; preds = %lean_dec.exit
  %52 = getelementptr inbounds nuw i8, ptr %49, i64 4
  store i32 1, ptr %49, align 4, !tbaa !8
  store i32 16908312, ptr %52, align 4
  %53 = getelementptr inbounds nuw i8, ptr %49, i64 8
  store ptr %48, ptr %53, align 8, !tbaa !4
  %54 = getelementptr inbounds nuw i8, ptr %49, i64 16
  store ptr %.027, ptr %54, align 8, !tbaa !4
  br label %.backedge

.backedge:                                        ; preds = %lean_alloc_ctor.exit, %22
  %.027.be = phi ptr [ %.0, %22 ], [ %49, %lean_alloc_ctor.exit ]
  br label %4
}